; Function Attrs: mustprogress uwtable
define dso_local void @_ZN5ImGui21PushColumnsBackgroundEv() local_unnamed_addr #3 {
  %1 = load ptr, ptr @GImGui, align 8, !tbaa !4
  %2 = getelementptr inbounds nuw i8, ptr %1, i64 4928
  %3 = load ptr, ptr %2, align 8, !tbaa !9
  %4 = getelementptr inbounds nuw i8, ptr %3, i64 448
  %5 = load ptr, ptr %4, align 8, !tbaa !608
  %6 = getelementptr inbounds nuw i8, ptr %5, i64 16
  %7 = load i32, ptr %6, align 8, !tbaa !613
  %8 = icmp eq i32 %7, 1
  br i1 %8, label %27, label %9

9:                                                ; preds = %0
  %10 = getelementptr inbounds nuw i8, ptr %3, i64 592
  %11 = getelementptr inbounds nuw i8, ptr %5, i64 60
  tail call void @llvm.memcpy.p0.p0.i64(ptr noundef nonnull align 4 dereferenceable(16) %11, ptr noundef nonnull align 8 dereferenceable(16) %10, i64 16, i1 false), !tbaa.struct !215
  %12 = getelementptr inbounds nuw i8, ptr %5, i64 44
  %13 = load <4 x float>, ptr %12, align 4
  %.sroa.0.4.vec.insert.i.i = shufflevector <4 x float> %13, <4 x float> poison, <2 x i32> <i32 0, i32 1>
  %.sroa.3.12.vec.insert.i.i = shufflevector <4 x float> %13, <4 x float> poison, <2 x i32> <i32 2, i32 3>
  tail call void @llvm.memcpy.p0.p0.i64(ptr noundef nonnull align 8 dereferenceable(16) %10, ptr noundef nonnull readonly align 4 dereferenceable(16) %12, i64 16, i1 false), !tbaa.struct !215
  %14 = getelementptr inbounds nuw i8, ptr %3, i64 688
  %15 = load ptr, ptr %14, align 8, !tbaa !429
  %16 = getelementptr inbounds nuw i8, ptr %15, i64 96
  store <2 x float> %.sroa.0.4.vec.insert.i.i, ptr %16, align 8
  %.sroa.5.0..sroa_idx.i = getelementptr inbounds nuw i8, ptr %15, i64 104
  store <2 x float> %.sroa.3.12.vec.insert.i.i, ptr %.sroa.5.0..sroa_idx.i, align 8
  %17 = load ptr, ptr %14, align 8, !tbaa !429
  %18 = getelementptr inbounds nuw i8, ptr %17, i64 152
  %19 = getelementptr inbounds nuw i8, ptr %17, i64 160
  %20 = load ptr, ptr %19, align 8, !tbaa !499
  %21 = load i32, ptr %18, align 8, !tbaa !500
  %22 = sext i32 %21 to i64
  %23 = getelementptr %struct.ImVec4, ptr %20, i64 %22
  %24 = getelementptr i8, ptr %23, i64 -16
  store <2 x float> %.sroa.0.4.vec.insert.i.i, ptr %24, align 4
  %.sroa.5.0..sroa_idx2.i = getelementptr i8, ptr %23, i64 -8
  store <2 x float> %.sroa.3.12.vec.insert.i.i, ptr %.sroa.5.0..sroa_idx2.i, align 4
  %25 = getelementptr inbounds nuw i8, ptr %5, i64 112
  %26 = load ptr, ptr %14, align 8, !tbaa !429
  tail call void @_ZN18ImDrawListSplitter17SetCurrentChannelEP10ImDrawListi(ptr noundef nonnull align 8 dereferenceable(24) %25, ptr noundef %26, i32 noundef 0)
  br label %27

27:                                               ; preds = %0, %9
  ret void
}